target datalayout = "e-m:e-p270:32:32-p271:32:32-p272:64:64-i64:64-i128:128-f80:128-n8:16:32:64-S128"
target triple = "x86_64-pc-linux-gnu"

%"class.cmsys::CommandLineArguments" = type <{ ptr, %"class.std::__cxx11::basic_string", i32, i8, [3 x i8] }>
%"class.std::__cxx11::basic_string" = type { %"struct.std::__cxx11::basic_string<char>::_Alloc_hider", i64, %union.anon }
%"struct.std::__cxx11::basic_string<char>::_Alloc_hider" = type { ptr }
%union.anon = type { i64, [8 x i8] }

; Function Attrs: mustprogress uwtable
define dso_local void @_ZN5cmsys20CommandLineArguments13SetLineLengthEj(ptr noundef nonnull align 8 dereferenceable(45) %0, i32 noundef %1) #4 align 2 {
  %3 = alloca ptr, align 8
  %4 = alloca i32, align 4
  store ptr %0, ptr %3, align 8, !tbaa !4
  store i32 %1, ptr %4, align 4, !tbaa !43
  %5 = load ptr, ptr %3, align 8
  %6 = load i32, ptr %4, align 4, !tbaa !43
  %7 = icmp ult i32 %6, 9
  br i1 %7, label %11, label %8

8:                                                ; preds = %2
  %9 = load i32, ptr %4, align 4, !tbaa !43
  %10 = icmp ugt i32 %9, 1000
  br i1 %10, label %11, label %12

11:                                               ; preds = %8, %2
  br label %15

12:                                               ; preds = %8
  %13 = load i32, ptr %4, align 4, !tbaa !43
  %14 = getelementptr inbounds nuw %"class.cmsys::CommandLineArguments", ptr %5, i32 0, i32 2
  store i32 %13, ptr %14, align 8, !tbaa !18
  call void @_ZN5cmsys20CommandLineArguments12GenerateHelpEv(ptr noundef nonnull align 8 dereferenceable(45) %5)
  br label %15

15:                                               ; preds = %12, %11
  ret void
}