; Function Attrs: mustprogress uwtable
define dso_local void @_ZN5cmsys20CommandLineArguments13SetLineLengthEj(ptr noundef nonnull align 8 dereferenceable(45) %0, i32 noundef %1) local_unnamed_addr #3 align 2 {
  %3 = add i32 %1, -1001
  %or.cond = icmp ult i32 %3, -992
  br i1 %or.cond, label %6, label %4

4:                                                ; preds = %2
  %5 = getelementptr inbounds nuw i8, ptr %0, i64 40
  store i32 %1, ptr %5, align 8, !tbaa !27
  tail call void @_ZN5cmsys20CommandLineArguments12GenerateHelpEv(ptr noundef nonnull align 8 dereferenceable(45) %0)
  br label %6

6:                                                ; preds = %2, %4
  ret void
}